; Function Attrs: nofree nounwind uwtable
define noalias noundef ptr @Extra_FileReadFloat(ptr noundef captures(none) %0, ptr noundef writeonly captures(none) initializes((0, 4)) %1) local_unnamed_addr #8 {
  %3 = tail call i32 @fseek(ptr noundef %0, i64 noundef 0, i32 noundef 2)
  %4 = tail call i64 @ftell(ptr noundef %0)
  %5 = trunc i64 %4 to i32
  store i32 %5, ptr %1, align 4, !tbaa !3
  tail call void @rewind(ptr noundef %0)
  %6 = sdiv i32 %5, 4
  %7 = sext i32 %6 to i64
  %8 = tail call noalias ptr @calloc(i64 noundef %7, i64 noundef 4) #25
  %sext = shl i64 %4, 32
  %9 = ashr exact i64 %sext, 32
  %10 = tail call i64 @fread(ptr noundef %8, i64 noundef %9, i64 noundef 1, ptr noundef %0)
  ret ptr %8
}